target datalayout = "e-m:e-p270:32:32-p271:32:32-p272:64:64-i64:64-i128:128-f80:128-n8:16:32:64-S128"
target triple = "x86_64-pc-linux-gnu"

%struct.drwav__metadata_parser = type { ptr, ptr, ptr, i32, ptr, i32, ptr, ptr, i64, i64 }
%struct.drwav_metadata = type { i32, %union.anon.70 }
%union.anon.70 = type { %struct.drwav_bext }
%struct.drwav_bext = type { ptr, ptr, ptr, [10 x i8], [8 x i8], i64, i16, ptr, i32, ptr, i16, i16, i16, i16, i16 }
%struct.drwav_list_info_text = type { i32, ptr }

; Function Attrs: nounwind uwtable
define internal i64 @drwav__on_read(ptr noundef %0, ptr noundef %1, ptr noundef %2, i64 noundef %3, ptr noundef %4) #0 {
  %6 = alloca ptr, align 8
  %7 = alloca ptr, align 8
  %8 = alloca ptr, align 8
  %9 = alloca i64, align 8
  %10 = alloca ptr, align 8
  %11 = alloca i64, align 8
  store ptr %0, ptr %6, align 8
  store ptr %1, ptr %7, align 8
  store ptr %2, ptr %8, align 8
  store i64 %3, ptr %9, align 8
  store ptr %4, ptr %10, align 8
  call void @llvm.lifetime.start.p0(i64 8, ptr %11) #21
  %12 = load ptr, ptr %6, align 8
  %13 = load ptr, ptr %7, align 8
  %14 = load ptr, ptr %8, align 8
  %15 = load i64, ptr %9, align 8
  %16 = call i64 %12(ptr noundef %13, ptr noundef %14, i64 noundef %15)
  store i64 %16, ptr %11, align 8
  %17 = load i64, ptr %11, align 8
  %18 = load ptr, ptr %10, align 8
  %19 = load i64, ptr %18, align 8
  %20 = add i64 %19, %17
  store i64 %20, ptr %18, align 8
  %21 = load i64, ptr %11, align 8
  call void @llvm.lifetime.end.p0(i64 8, ptr %11) #21
  ret i64 %21
}

; Function Attrs: nounwind uwtable
define internal i64 @drwav__metadata_parser_read(ptr noundef %0, ptr noundef %1, i64 noundef %2, ptr noundef %3) #0 {
  %5 = alloca i64, align 8
  %6 = alloca ptr, align 8
  %7 = alloca ptr, align 8
  %8 = alloca i64, align 8
  %9 = alloca ptr, align 8
  store ptr %0, ptr %6, align 8
  store ptr %1, ptr %7, align 8
  store i64 %2, ptr %8, align 8
  store ptr %3, ptr %9, align 8
  %10 = load ptr, ptr %9, align 8
  %11 = icmp ne ptr %10, null
  br i1 %11, label %12, label %23

12:                                               ; preds = %4
  %13 = load ptr, ptr %6, align 8
  %14 = getelementptr inbounds nuw %struct.drwav__metadata_parser, ptr %13, i32 0, i32 0
  %15 = load ptr, ptr %14, align 8
  %16 = load ptr, ptr %6, align 8
  %17 = getelementptr inbounds nuw %struct.drwav__metadata_parser, ptr %16, i32 0, i32 2
  %18 = load ptr, ptr %17, align 8
  %19 = load ptr, ptr %7, align 8
  %20 = load i64, ptr %8, align 8
  %21 = load ptr, ptr %9, align 8
  %22 = call i64 @drwav__on_read(ptr noundef %15, ptr noundef %18, ptr noundef %19, i64 noundef %20, ptr noundef %21)
  store i64 %22, ptr %5, align 8
  br label %33

23:                                               ; preds = %4
  %24 = load ptr, ptr %6, align 8
  %25 = getelementptr inbounds nuw %struct.drwav__metadata_parser, ptr %24, i32 0, i32 0
  %26 = load ptr, ptr %25, align 8
  %27 = load ptr, ptr %6, align 8
  %28 = getelementptr inbounds nuw %struct.drwav__metadata_parser, ptr %27, i32 0, i32 2
  %29 = load ptr, ptr %28, align 8
  %30 = load ptr, ptr %7, align 8
  %31 = load i64, ptr %8, align 8
  %32 = call i64 %26(ptr noundef %29, ptr noundef %30, i64 noundef %31)
  store i64 %32, ptr %5, align 8
  br label %33

33:                                               ; preds = %23, %12
  %34 = load i64, ptr %5, align 8
  ret i64 %34
}

; Function Attrs: nounwind uwtable
define internal ptr @drwav__metadata_get_memory(ptr noundef %0, i64 noundef %1, i64 noundef %2) #0 {
  %4 = alloca ptr, align 8
  %5 = alloca i64, align 8
  %6 = alloca i64, align 8
  %7 = alloca ptr, align 8
  %8 = alloca i64, align 8
  store ptr %0, ptr %4, align 8
  store i64 %1, ptr %5, align 8
  store i64 %2, ptr %6, align 8
  call void @llvm.lifetime.start.p0(i64 8, ptr %7) #21
  %9 = load i64, ptr %6, align 8
  %10 = icmp ne i64 %9, 0
  br i1 %10, label %11, label %29

11:                                               ; preds = %3
  call void @llvm.lifetime.start.p0(i64 8, ptr %8) #21
  %12 = load ptr, ptr %4, align 8
  %13 = getelementptr inbounds nuw %struct.drwav__metadata_parser, ptr %12, i32 0, i32 7
  %14 = load ptr, ptr %13, align 8
  %15 = ptrtoint ptr %14 to i64
  %16 = load i64, ptr %6, align 8
  %17 = urem i64 %15, %16
  store i64 %17, ptr %8, align 8
  %18 = load i64, ptr %8, align 8
  %19 = icmp ne i64 %18, 0
  br i1 %19, label %20, label %28

20:                                               ; preds = %11
  %21 = load i64, ptr %6, align 8
  %22 = load i64, ptr %8, align 8
  %23 = sub i64 %21, %22
  %24 = load ptr, ptr %4, align 8
  %25 = getelementptr inbounds nuw %struct.drwav__metadata_parser, ptr %24, i32 0, i32 7
  %26 = load ptr, ptr %25, align 8
  %27 = getelementptr inbounds nuw i8, ptr %26, i64 %23
  store ptr %27, ptr %25, align 8
  br label %28

28:                                               ; preds = %20, %11
  call void @llvm.lifetime.end.p0(i64 8, ptr %8) #21
  br label %29

29:                                               ; preds = %28, %3
  %30 = load ptr, ptr %4, align 8
  %31 = getelementptr inbounds nuw %struct.drwav__metadata_parser, ptr %30, i32 0, i32 7
  %32 = load ptr, ptr %31, align 8
  store ptr %32, ptr %7, align 8
  %33 = load i64, ptr %5, align 8
  %34 = load ptr, ptr %4, align 8
  %35 = getelementptr inbounds nuw %struct.drwav__metadata_parser, ptr %34, i32 0, i32 7
  %36 = load ptr, ptr %35, align 8
  %37 = getelementptr inbounds nuw i8, ptr %36, i64 %33
  store ptr %37, ptr %35, align 8
  %38 = load ptr, ptr %7, align 8
  call void @llvm.lifetime.end.p0(i64 8, ptr %7) #21
  ret ptr %38
}

; Function Attrs: nounwind uwtable
define internal void @drwav__metadata_request_extra_memory_for_stage_2(ptr noundef %0, i64 noundef %1, i64 noundef %2) #0 {
  %4 = alloca ptr, align 8
  %5 = alloca i64, align 8
  %6 = alloca i64, align 8
  %7 = alloca i64, align 8
  store ptr %0, ptr %4, align 8
  store i64 %1, ptr %5, align 8
  store i64 %2, ptr %6, align 8
  call void @llvm.lifetime.start.p0(i64 8, ptr %7) #21
  %8 = load i64, ptr %5, align 8
  %9 = load i64, ptr %6, align 8
  %10 = icmp ne i64 %9, 0
  br i1 %10, label %11, label %14

11:                                               ; preds = %3
  %12 = load i64, ptr %6, align 8
  %13 = sub i64 %12, 1
  br label %15

14:                                               ; preds = %3
  br label %15

15:                                               ; preds = %14, %11
  %16 = phi i64 [ %13, %11 ], [ 0, %14 ]
  %17 = add i64 %8, %16
  store i64 %17, ptr %7, align 8
  %18 = load i64, ptr %7, align 8
  %19 = load ptr, ptr %4, align 8
  %20 = getelementptr inbounds nuw %struct.drwav__metadata_parser, ptr %19, i32 0, i32 9
  %21 = load i64, ptr %20, align 8
  %22 = add i64 %21, %18
  store i64 %22, ptr %20, align 8
  call void @llvm.lifetime.end.p0(i64 8, ptr %7) #21
  ret void
}

; Function Attrs: nounwind uwtable
define internal i64 @drwav__metadata_process_info_text_chunk(ptr noundef %0, i64 noundef %1, i32 noundef %2) #0 {
  %4 = alloca ptr, align 8
  %5 = alloca i64, align 8
  %6 = alloca i32, align 4
  %7 = alloca i64, align 8
  %8 = alloca i32, align 4
  %9 = alloca ptr, align 8
  store ptr %0, ptr %4, align 8
  store i64 %1, ptr %5, align 8
  store i32 %2, ptr %6, align 4
  call void @llvm.lifetime.start.p0(i64 8, ptr %7) #21
  store i64 0, ptr %7, align 8
  call void @llvm.lifetime.start.p0(i64 4, ptr %8) #21
  %10 = load i64, ptr %5, align 8
  %11 = trunc i64 %10 to i32
  store i32 %11, ptr %8, align 4
  %12 = load ptr, ptr %4, align 8
  %13 = getelementptr inbounds nuw %struct.drwav__metadata_parser, ptr %12, i32 0, i32 3
  %14 = load i32, ptr %13, align 8
  %15 = icmp eq i32 %14, 0
  br i1 %15, label %16, label %24

16:                                               ; preds = %3
  %17 = load ptr, ptr %4, align 8
  %18 = getelementptr inbounds nuw %struct.drwav__metadata_parser, ptr %17, i32 0, i32 5
  %19 = load i32, ptr %18, align 8
  %20 = add i32 %19, 1
  store i32 %20, ptr %18, align 8
  %21 = load ptr, ptr %4, align 8
  %22 = load i32, ptr %8, align 4
  %23 = zext i32 %22 to i64
  call void @drwav__metadata_request_extra_memory_for_stage_2(ptr noundef %21, i64 noundef %23, i64 noundef 1)
  br label %80

24:                                               ; preds = %3
  call void @llvm.lifetime.start.p0(i64 8, ptr %9) #21
  %25 = load ptr, ptr %4, align 8
  %26 = getelementptr inbounds nuw %struct.drwav__metadata_parser, ptr %25, i32 0, i32 4
  %27 = load ptr, ptr %26, align 8
  %28 = load ptr, ptr %4, align 8
  %29 = getelementptr inbounds nuw %struct.drwav__metadata_parser, ptr %28, i32 0, i32 8
  %30 = load i64, ptr %29, align 8
  %31 = getelementptr inbounds nuw %struct.drwav_metadata, ptr %27, i64 %30
  store ptr %31, ptr %9, align 8
  %32 = load i32, ptr %6, align 4
  %33 = load ptr, ptr %9, align 8
  %34 = getelementptr inbounds nuw %struct.drwav_metadata, ptr %33, i32 0, i32 0
  store i32 %32, ptr %34, align 8
  %35 = load i32, ptr %8, align 4
  %36 = icmp ugt i32 %35, 0
  br i1 %36, label %37, label %68

37:                                               ; preds = %24
  %38 = load i32, ptr %8, align 4
  %39 = sub i32 %38, 1
  %40 = load ptr, ptr %9, align 8
  %41 = getelementptr inbounds nuw %struct.drwav_metadata, ptr %40, i32 0, i32 1
  %42 = getelementptr inbounds nuw %struct.drwav_list_info_text, ptr %41, i32 0, i32 0
  store i32 %39, ptr %42, align 8
  %43 = load ptr, ptr %4, align 8
  %44 = load i32, ptr %8, align 4
  %45 = zext i32 %44 to i64
  %46 = call ptr @drwav__metadata_get_memory(ptr noundef %43, i64 noundef %45, i64 noundef 1)
  %47 = load ptr, ptr %9, align 8
  %48 = getelementptr inbounds nuw %struct.drwav_metadata, ptr %47, i32 0, i32 1
  %49 = getelementptr inbounds nuw %struct.drwav_list_info_text, ptr %48, i32 0, i32 1
  store ptr %46, ptr %49, align 8
  %50 = load ptr, ptr %4, align 8
  %51 = load ptr, ptr %9, align 8
  %52 = getelementptr inbounds nuw %struct.drwav_metadata, ptr %51, i32 0, i32 1
  %53 = getelementptr inbounds nuw %struct.drwav_list_info_text, ptr %52, i32 0, i32 1
  %54 = load ptr, ptr %53, align 8
  %55 = load i32, ptr %8, align 4
  %56 = zext i32 %55 to i64
  %57 = call i64 @drwav__metadata_parser_read(ptr noundef %50, ptr noundef %54, i64 noundef %56, ptr noundef null)
  store i64 %57, ptr %7, align 8
  %58 = load i64, ptr %7, align 8
  %59 = load i64, ptr %5, align 8
  %60 = icmp eq i64 %58, %59
  br i1 %60, label %61, label %66

61:                                               ; preds = %37
  %62 = load ptr, ptr %4, align 8
  %63 = getelementptr inbounds nuw %struct.drwav__metadata_parser, ptr %62, i32 0, i32 8
  %64 = load i64, ptr %63, align 8
  %65 = add i64 %64, 1
  store i64 %65, ptr %63, align 8
  br label %67

66:                                               ; preds = %37
  br label %67

67:                                               ; preds = %66, %61
  br label %79

68:                                               ; preds = %24
  %69 = load ptr, ptr %9, align 8
  %70 = getelementptr inbounds nuw %struct.drwav_metadata, ptr %69, i32 0, i32 1
  %71 = getelementptr inbounds nuw %struct.drwav_list_info_text, ptr %70, i32 0, i32 0
  store i32 0, ptr %71, align 8
  %72 = load ptr, ptr %9, align 8
  %73 = getelementptr inbounds nuw %struct.drwav_metadata, ptr %72, i32 0, i32 1
  %74 = getelementptr inbounds nuw %struct.drwav_list_info_text, ptr %73, i32 0, i32 1
  store ptr null, ptr %74, align 8
  %75 = load ptr, ptr %4, align 8
  %76 = getelementptr inbounds nuw %struct.drwav__metadata_parser, ptr %75, i32 0, i32 8
  %77 = load i64, ptr %76, align 8
  %78 = add i64 %77, 1
  store i64 %78, ptr %76, align 8
  br label %79

79:                                               ; preds = %68, %67
  call void @llvm.lifetime.end.p0(i64 8, ptr %9) #21
  br label %80

80:                                               ; preds = %79, %16
  %81 = load i64, ptr %7, align 8
  call void @llvm.lifetime.end.p0(i64 4, ptr %8) #21
  call void @llvm.lifetime.end.p0(i64 8, ptr %7) #21
  ret i64 %81
}