; Function Attrs: nounwind uwtable
define internal fastcc i64 @drwav__metadata_process_info_text_chunk(ptr noundef nonnull captures(none) %0, i64 noundef range(i64 0, 4294967296) %1, i32 noundef range(i32 512, 131073) %2) unnamed_addr #7 {
  %4 = trunc nuw i64 %1 to i32
  %5 = getelementptr inbounds nuw i8, ptr %0, i64 24
  %6 = load i32, ptr %5, align 8
  %7 = icmp eq i32 %6, 0
  br i1 %7, label %8, label %15

8:                                                ; preds = %3
  %9 = getelementptr inbounds nuw i8, ptr %0, i64 40
  %10 = load i32, ptr %9, align 8
  %11 = add i32 %10, 1
  store i32 %11, ptr %9, align 8
  %12 = getelementptr inbounds nuw i8, ptr %0, i64 72
  %13 = load i64, ptr %12, align 8
  %14 = add i64 %13, %1
  store i64 %14, ptr %12, align 8
  br label %41

15:                                               ; preds = %3
  %16 = getelementptr inbounds nuw i8, ptr %0, i64 32
  %17 = load ptr, ptr %16, align 8
  %18 = getelementptr inbounds nuw i8, ptr %0, i64 64
  %19 = load i64, ptr %18, align 8
  %20 = getelementptr inbounds nuw %struct.drwav_metadata, ptr %17, i64 %19
  store i32 %2, ptr %20, align 8
  %.not = icmp eq i64 %1, 0
  br i1 %.not, label %36, label %21

21:                                               ; preds = %15
  %22 = add i32 %4, -1
  %23 = getelementptr inbounds nuw i8, ptr %20, i64 8
  store i32 %22, ptr %23, align 8
  %24 = getelementptr inbounds nuw i8, ptr %0, i64 56
  %25 = load ptr, ptr %24, align 8
  %26 = getelementptr inbounds nuw i8, ptr %25, i64 %1
  store ptr %26, ptr %24, align 8
  %27 = getelementptr inbounds nuw i8, ptr %20, i64 16
  store ptr %25, ptr %27, align 8
  %28 = load ptr, ptr %0, align 8
  %29 = getelementptr inbounds nuw i8, ptr %0, i64 16
  %30 = load ptr, ptr %29, align 8
  %31 = tail call i64 %28(ptr noundef %30, ptr noundef %25, i64 noundef range(i64 0, -602) %1) #72
  %32 = icmp eq i64 %31, %1
  br i1 %32, label %33, label %41

33:                                               ; preds = %21
  %34 = load i64, ptr %18, align 8
  %35 = add i64 %34, 1
  store i64 %35, ptr %18, align 8
  br label %41

36:                                               ; preds = %15
  %37 = getelementptr inbounds nuw i8, ptr %20, i64 8
  store i32 0, ptr %37, align 8
  %38 = getelementptr inbounds nuw i8, ptr %20, i64 16
  store ptr null, ptr %38, align 8
  %39 = load i64, ptr %18, align 8
  %40 = add i64 %39, 1
  store i64 %40, ptr %18, align 8
  br label %41

41:                                               ; preds = %36, %21, %33, %8
  %.0 = phi i64 [ 0, %8 ], [ %1, %33 ], [ %31, %21 ], [ 0, %36 ]
  ret i64 %.0
}